; Function Attrs: nounwind uwtable
define ptr @l_Lean_Expr_app1_x3f(ptr noundef %0, ptr noundef %1) local_unnamed_addr #0 {
  %3 = tail call zeroext i8 @l_Lean_Expr_isAppOfArity(ptr noundef %0, ptr noundef %1, ptr noundef nonnull inttoptr (i64 3 to ptr)) #4
  %4 = icmp eq i8 %3, 0
  br i1 %4, label %12, label %5

5:                                                ; preds = %2
  %6 = tail call ptr @l_Lean_Expr_appArg_x21(ptr noundef %0) #4
  tail call void @lean_inc_heartbeat() #4
  %7 = tail call noalias ptr @mi_malloc_small(i64 noundef 16) #4
  %8 = icmp eq ptr %7, null
  br i1 %8, label %9, label %lean_alloc_ctor.exit

9:                                                ; preds = %5
  tail call void @lean_internal_panic_out_of_memory() #5
  unreachable

lean_alloc_ctor.exit:                             ; preds = %5
  %10 = getelementptr inbounds nuw i8, ptr %7, i64 4
  store i32 1, ptr %7, align 4, !tbaa !8
  store i32 16842768, ptr %10, align 4
  %11 = getelementptr inbounds nuw i8, ptr %7, i64 8
  store ptr %6, ptr %11, align 8, !tbaa !4
  br label %12

12:                                               ; preds = %2, %lean_alloc_ctor.exit
  %.0 = phi ptr [ %7, %lean_alloc_ctor.exit ], [ inttoptr (i64 1 to ptr), %2 ]
  ret ptr %.0
}